target datalayout = "e-m:e-p270:32:32-p271:32:32-p272:64:64-i64:64-i128:128-f80:128-n8:16:32:64-S128"
target triple = "x86_64-pc-linux-gnu"

%struct.Query = type { i32, i32, i32, i64, i8, ptr, i32, i8, i8, i8, i8, i8, i8, i8, i8, i8, i8, i8, ptr, ptr, ptr, ptr, ptr, i32, ptr, ptr, i32, ptr, ptr, ptr, ptr, ptr, i8, ptr, ptr, ptr, ptr, ptr, ptr, ptr, i32, ptr, ptr, ptr, ptr, i32, i32 }
%struct.Node = type { i32 }
%struct.Const = type { %struct.Expr, i32, i32, i32, i32, i64, i8, i8, i32 }
%struct.Expr = type { i32 }

; Function Attrs: inlinehint nounwind uwtable
define internal i64 @DatumGetInt64(i64 noundef %0) #2 {
  %2 = alloca i64, align 8
  store i64 %0, ptr %2, align 8
  %3 = load i64, ptr %2, align 8
  ret i64 %3
}

; Function Attrs: nounwind uwtable
define dso_local zeroext i1 @limit_needed(ptr noundef %0) #0 {
  %2 = alloca i1, align 1
  %3 = alloca ptr, align 8
  %4 = alloca ptr, align 8
  %5 = alloca i32, align 4
  %6 = alloca i64, align 8
  store ptr %0, ptr %3, align 8
  call void @llvm.lifetime.start.p0(i64 8, ptr %4) #8
  %7 = load ptr, ptr %3, align 8
  %8 = getelementptr inbounds nuw %struct.Query, ptr %7, i32 0, i32 39
  %9 = load ptr, ptr %8, align 8
  store ptr %9, ptr %4, align 8
  %10 = load ptr, ptr %4, align 8
  %11 = icmp ne ptr %10, null
  br i1 %11, label %12, label %26

12:                                               ; preds = %1
  %13 = load ptr, ptr %4, align 8
  %14 = getelementptr inbounds nuw %struct.Node, ptr %13, i32 0, i32 0
  %15 = load i32, ptr %14, align 4
  %16 = icmp eq i32 %15, 7
  br i1 %16, label %17, label %24

17:                                               ; preds = %12
  %18 = load ptr, ptr %4, align 8
  %19 = getelementptr inbounds nuw %struct.Const, ptr %18, i32 0, i32 6
  %20 = load i8, ptr %19, align 8, !range !4, !noundef !5
  %21 = trunc i8 %20 to i1
  br i1 %21, label %23, label %22

22:                                               ; preds = %17
  store i1 true, ptr %2, align 1
  store i32 1, ptr %5, align 4
  br label %58

23:                                               ; preds = %17
  br label %25

24:                                               ; preds = %12
  store i1 true, ptr %2, align 1
  store i32 1, ptr %5, align 4
  br label %58

25:                                               ; preds = %23
  br label %26

26:                                               ; preds = %25, %1
  %27 = load ptr, ptr %3, align 8
  %28 = getelementptr inbounds nuw %struct.Query, ptr %27, i32 0, i32 38
  %29 = load ptr, ptr %28, align 8
  store ptr %29, ptr %4, align 8
  %30 = load ptr, ptr %4, align 8
  %31 = icmp ne ptr %30, null
  br i1 %31, label %32, label %57

32:                                               ; preds = %26
  %33 = load ptr, ptr %4, align 8
  %34 = getelementptr inbounds nuw %struct.Node, ptr %33, i32 0, i32 0
  %35 = load i32, ptr %34, align 4
  %36 = icmp eq i32 %35, 7
  br i1 %36, label %37, label %55

37:                                               ; preds = %32
  %38 = load ptr, ptr %4, align 8
  %39 = getelementptr inbounds nuw %struct.Const, ptr %38, i32 0, i32 6
  %40 = load i8, ptr %39, align 8, !range !4, !noundef !5
  %41 = trunc i8 %40 to i1
  br i1 %41, label %54, label %42

42:                                               ; preds = %37
  call void @llvm.lifetime.start.p0(i64 8, ptr %6) #8
  %43 = load ptr, ptr %4, align 8
  %44 = getelementptr inbounds nuw %struct.Const, ptr %43, i32 0, i32 5
  %45 = load i64, ptr %44, align 8
  %46 = call i64 @DatumGetInt64(i64 noundef %45)
  store i64 %46, ptr %6, align 8
  %47 = load i64, ptr %6, align 8
  %48 = icmp ne i64 %47, 0
  br i1 %48, label %49, label %50

49:                                               ; preds = %42
  store i1 true, ptr %2, align 1
  store i32 1, ptr %5, align 4
  br label %51

50:                                               ; preds = %42
  store i32 0, ptr %5, align 4
  br label %51

51:                                               ; preds = %50, %49
  call void @llvm.lifetime.end.p0(i64 8, ptr %6) #8
  %52 = load i32, ptr %5, align 4
  switch i32 %52, label %58 [
    i32 0, label %53
  ]

53:                                               ; preds = %51
  br label %54

54:                                               ; preds = %53, %37
  br label %56

55:                                               ; preds = %32
  store i1 true, ptr %2, align 1
  store i32 1, ptr %5, align 4
  br label %58

56:                                               ; preds = %54
  br label %57

57:                                               ; preds = %56, %26
  store i1 false, ptr %2, align 1
  store i32 1, ptr %5, align 4
  br label %58

58:                                               ; preds = %57, %55, %51, %24, %22
  call void @llvm.lifetime.end.p0(i64 8, ptr %4) #8
  %59 = load i1, ptr %2, align 1
  ret i1 %59
}