; Function Attrs: mustprogress nofree norecurse nosync nounwind willreturn memory(read, inaccessiblemem: none) uwtable
define dso_local noundef zeroext i1 @limit_needed(ptr noundef readonly captures(none) %0) local_unnamed_addr #6 {
  %2 = getelementptr inbounds nuw i8, ptr %0, i64 224
  %3 = load ptr, ptr %2, align 8
  %.not = icmp eq ptr %3, null
  br i1 %.not, label %11, label %4

4:                                                ; preds = %1
  %5 = load i32, ptr %3, align 4
  %6 = icmp eq i32 %5, 7
  br i1 %6, label %7, label %25

7:                                                ; preds = %4
  %8 = getelementptr inbounds nuw i8, ptr %3, i64 32
  %9 = load i8, ptr %8, align 8, !range !4, !noundef !5
  %10 = trunc nuw i8 %9 to i1
  br i1 %10, label %11, label %25

11:                                               ; preds = %7, %1
  %12 = getelementptr inbounds nuw i8, ptr %0, i64 216
  %13 = load ptr, ptr %12, align 8
  %.not14 = icmp eq ptr %13, null
  br i1 %.not14, label %24, label %14

14:                                               ; preds = %11
  %15 = load i32, ptr %13, align 4
  %16 = icmp eq i32 %15, 7
  br i1 %16, label %17, label %25

17:                                               ; preds = %14
  %18 = getelementptr inbounds nuw i8, ptr %13, i64 32
  %19 = load i8, ptr %18, align 8, !range !4, !noundef !5
  %20 = trunc nuw i8 %19 to i1
  br i1 %20, label %24, label %21

21:                                               ; preds = %17
  %22 = getelementptr inbounds nuw i8, ptr %13, i64 24
  %23 = load i64, ptr %22, align 8
  %.not15 = icmp eq i64 %23, 0
  br i1 %.not15, label %24, label %25

24:                                               ; preds = %21, %17, %11
  br label %25

25:                                               ; preds = %14, %4, %7, %21, %24
  %.0 = phi i1 [ false, %24 ], [ true, %21 ], [ true, %7 ], [ true, %4 ], [ true, %14 ]
  ret i1 %.0
}